target datalayout = "e-m:e-p270:32:32-p271:32:32-p272:64:64-i64:64-i128:128-f80:128-n8:16:32:64-S128"
target triple = "x86_64-unknown-linux-gnu"

%"class.std::function" = type { %"class.std::_Function_base", ptr }
%"class.std::_Function_base" = type { %"union.std::_Any_data", ptr }
%"union.std::_Any_data" = type { %"union.std::_Nocopy_types" }
%"union.std::_Nocopy_types" = type { { i64, i64 } }
%"class.std::function.0" = type { %"class.std::_Function_base", ptr }
%class.anon = type { i8 }
%class.anon.7 = type { i8 }

; Function Attrs: mustprogress nounwind uwtable
define linkonce_odr noundef ptr @_ZNSt9_Any_data9_M_accessEv(ptr noundef nonnull align 8 dereferenceable(16) %this) #1 comdat align 2 {
entry:
  %this.addr = alloca ptr, align 8
  store ptr %this, ptr %this.addr, align 8
  %this1 = load ptr, ptr %this.addr, align 8
  %arrayidx = getelementptr inbounds [16 x i8], ptr %this1, i64 0, i64 0
  ret ptr %arrayidx
}

; Function Attrs: mustprogress nounwind uwtable
define internal void @_ZNSt14_Function_base13_Base_managerIZN8facebook5velox11filesystems12_GLOBAL__N_115LocalFileSystem19fileSystemGeneratorEvEUlSt10shared_ptrIKNS2_6ConfigEESt17basic_string_viewIcSt11char_traitsIcEEE_E9_M_createISE_EEvRSt9_Any_dataOT_St17integral_constantIbLb1EE(ptr noundef nonnull align 8 dereferenceable(16) %__dest, ptr noundef nonnull align 1 dereferenceable(1) %__f) #1 align 2 {
entry:
  %__dest.addr = alloca ptr, align 8
  %__f.addr = alloca ptr, align 8
  store ptr %__dest, ptr %__dest.addr, align 8
  store ptr %__f, ptr %__f.addr, align 8
  %0 = load ptr, ptr %__dest.addr, align 8
  %call = call noundef ptr @_ZNSt9_Any_data9_M_accessEv(ptr noundef nonnull align 8 dereferenceable(16) %0) #5
  ret void
}

; Function Attrs: mustprogress nounwind uwtable
define internal void @_ZNSt14_Function_base13_Base_managerIZN8facebook5velox11filesystems12_GLOBAL__N_115LocalFileSystem13schemeMatcherEvEUlSt17basic_string_viewIcSt11char_traitsIcEEE_E9_M_createISA_EEvRSt9_Any_dataOT_St17integral_constantIbLb1EE(ptr noundef nonnull align 8 dereferenceable(16) %__dest, ptr noundef nonnull align 1 dereferenceable(1) %__f) #1 align 2 {
entry:
  %__dest.addr = alloca ptr, align 8
  %__f.addr = alloca ptr, align 8
  store ptr %__dest, ptr %__dest.addr, align 8
  store ptr %__f, ptr %__f.addr, align 8
  %0 = load ptr, ptr %__dest.addr, align 8
  %call = call noundef ptr @_ZNSt9_Any_data9_M_accessEv(ptr noundef nonnull align 8 dereferenceable(16) %0) #5
  ret void
}

; Function Attrs: mustprogress nounwind uwtable
define internal void @_ZNSt14_Function_base13_Base_managerIZN8facebook5velox11filesystems12_GLOBAL__N_115LocalFileSystem19fileSystemGeneratorEvEUlSt10shared_ptrIKNS2_6ConfigEESt17basic_string_viewIcSt11char_traitsIcEEE_E15_M_init_functorISE_EEvRSt9_Any_dataOT_(ptr noundef nonnull align 8 dereferenceable(16) %__functor, ptr noundef nonnull align 1 dereferenceable(1) %__f) #1 align 2 personality ptr @__gxx_personality_v0 {
entry:
  %__functor.addr = alloca ptr, align 8
  %__f.addr = alloca ptr, align 8
  store ptr %__functor, ptr %__functor.addr, align 8
  store ptr %__f, ptr %__f.addr, align 8
  %0 = load ptr, ptr %__functor.addr, align 8
  %1 = load ptr, ptr %__f.addr, align 8
  invoke void @_ZNSt14_Function_base13_Base_managerIZN8facebook5velox11filesystems12_GLOBAL__N_115LocalFileSystem19fileSystemGeneratorEvEUlSt10shared_ptrIKNS2_6ConfigEESt17basic_string_viewIcSt11char_traitsIcEEE_E9_M_createISE_EEvRSt9_Any_dataOT_St17integral_constantIbLb1EE(ptr noundef nonnull align 8 dereferenceable(16) %0, ptr noundef nonnull align 1 dereferenceable(1) %1)
          to label %invoke.cont unwind label %terminate.lpad

invoke.cont:                                      ; preds = %entry
  ret void

terminate.lpad:                                   ; preds = %entry
  %2 = landingpad { ptr, i32 }
          catch ptr null
  %3 = extractvalue { ptr, i32 } %2, 0
  call void @__clang_call_terminate(ptr %3) #16
  unreachable
}

; Function Attrs: mustprogress nounwind uwtable
define internal noundef zeroext i1 @_ZNSt14_Function_base13_Base_managerIZN8facebook5velox11filesystems12_GLOBAL__N_115LocalFileSystem19fileSystemGeneratorEvEUlSt10shared_ptrIKNS2_6ConfigEESt17basic_string_viewIcSt11char_traitsIcEEE_E21_M_not_empty_functionISE_EEbRKT_(ptr noundef nonnull align 1 dereferenceable(1) %0) #1 align 2 {
entry:
  %.addr = alloca ptr, align 8
  store ptr %0, ptr %.addr, align 8
  ret i1 true
}

; Function Attrs: mustprogress nounwind uwtable
define internal void @_ZNSt14_Function_base13_Base_managerIZN8facebook5velox11filesystems12_GLOBAL__N_115LocalFileSystem13schemeMatcherEvEUlSt17basic_string_viewIcSt11char_traitsIcEEE_E15_M_init_functorISA_EEvRSt9_Any_dataOT_(ptr noundef nonnull align 8 dereferenceable(16) %__functor, ptr noundef nonnull align 1 dereferenceable(1) %__f) #1 align 2 personality ptr @__gxx_personality_v0 {
entry:
  %__functor.addr = alloca ptr, align 8
  %__f.addr = alloca ptr, align 8
  store ptr %__functor, ptr %__functor.addr, align 8
  store ptr %__f, ptr %__f.addr, align 8
  %0 = load ptr, ptr %__functor.addr, align 8
  %1 = load ptr, ptr %__f.addr, align 8
  invoke void @_ZNSt14_Function_base13_Base_managerIZN8facebook5velox11filesystems12_GLOBAL__N_115LocalFileSystem13schemeMatcherEvEUlSt17basic_string_viewIcSt11char_traitsIcEEE_E9_M_createISA_EEvRSt9_Any_dataOT_St17integral_constantIbLb1EE(ptr noundef nonnull align 8 dereferenceable(16) %0, ptr noundef nonnull align 1 dereferenceable(1) %1)
          to label %invoke.cont unwind label %terminate.lpad

invoke.cont:                                      ; preds = %entry
  ret void

terminate.lpad:                                   ; preds = %entry
  %2 = landingpad { ptr, i32 }
          catch ptr null
  %3 = extractvalue { ptr, i32 } %2, 0
  call void @__clang_call_terminate(ptr %3) #16
  unreachable
}

; Function Attrs: mustprogress nounwind uwtable
define internal noundef zeroext i1 @_ZNSt14_Function_base13_Base_managerIZN8facebook5velox11filesystems12_GLOBAL__N_115LocalFileSystem13schemeMatcherEvEUlSt17basic_string_viewIcSt11char_traitsIcEEE_E21_M_not_empty_functionISA_EEbRKT_(ptr noundef nonnull align 1 dereferenceable(1) %0) #1 align 2 {
entry:
  %.addr = alloca ptr, align 8
  store ptr %0, ptr %.addr, align 8
  ret i1 true
}

; Function Attrs: mustprogress nounwind uwtable
define linkonce_odr void @_ZNSt14_Function_baseC2Ev(ptr noundef nonnull align 8 dereferenceable(24) %this) unnamed_addr #1 comdat align 2 {
entry:
  %this.addr = alloca ptr, align 8
  store ptr %this, ptr %this.addr, align 8
  %this1 = load ptr, ptr %this.addr, align 8
  %_M_functor = getelementptr inbounds %"class.std::_Function_base", ptr %this1, i32 0, i32 0
  store ptr null, ptr %_M_functor, align 8
  %_M_manager = getelementptr inbounds %"class.std::_Function_base", ptr %this1, i32 0, i32 1
  store ptr null, ptr %_M_manager, align 8
  ret void
}

; Function Attrs: mustprogress nounwind uwtable
define linkonce_odr void @_ZNSt14_Function_baseD2Ev(ptr noundef nonnull align 8 dereferenceable(24) %this) unnamed_addr #1 comdat align 2 personality ptr @__gxx_personality_v0 {
entry:
  %this.addr = alloca ptr, align 8
  store ptr %this, ptr %this.addr, align 8
  %this1 = load ptr, ptr %this.addr, align 8
  %_M_manager = getelementptr inbounds %"class.std::_Function_base", ptr %this1, i32 0, i32 1
  %0 = load ptr, ptr %_M_manager, align 8
  %tobool = icmp ne ptr %0, null
  br i1 %tobool, label %if.then, label %if.end

if.then:                                          ; preds = %entry
  %_M_manager2 = getelementptr inbounds %"class.std::_Function_base", ptr %this1, i32 0, i32 1
  %1 = load ptr, ptr %_M_manager2, align 8
  %_M_functor = getelementptr inbounds %"class.std::_Function_base", ptr %this1, i32 0, i32 0
  %_M_functor3 = getelementptr inbounds %"class.std::_Function_base", ptr %this1, i32 0, i32 0
  %call = invoke noundef zeroext i1 %1(ptr noundef nonnull align 8 dereferenceable(16) %_M_functor, ptr noundef nonnull align 8 dereferenceable(16) %_M_functor3, i32 noundef 3)
          to label %invoke.cont unwind label %terminate.lpad

invoke.cont:                                      ; preds = %if.then
  br label %if.end

if.end:                                           ; preds = %invoke.cont, %entry
  ret void

terminate.lpad:                                   ; preds = %if.then
  %2 = landingpad { ptr, i32 }
          catch ptr null
  %3 = extractvalue { ptr, i32 } %2, 0
  call void @__clang_call_terminate(ptr %3) #16
  unreachable
}

; Function Attrs: mustprogress nounwind uwtable
define internal void @_ZNSt8functionIFSt10shared_ptrIN8facebook5velox11filesystems10FileSystemEES0_IKNS2_6ConfigEESt17basic_string_viewIcSt11char_traitsIcEEEEC2IZNS3_12_GLOBAL__N_115LocalFileSystem19fileSystemGeneratorEvEUlS8_SC_E_vEEOT_(ptr noundef nonnull align 8 dereferenceable(32) %this, ptr noundef nonnull align 1 dereferenceable(1) %__f) unnamed_addr #1 align 2 {
entry:
  %this.addr = alloca ptr, align 8
  %__f.addr = alloca ptr, align 8
  store ptr %this, ptr %this.addr, align 8
  store ptr %__f, ptr %__f.addr, align 8
  %this1 = load ptr, ptr %this.addr, align 8
  %0 = getelementptr inbounds i8, ptr %this1, i64 0
  call void @llvm.memset.p0.i64(ptr align 8 %0, i8 0, i64 24, i1 false)
  call void @_ZNSt14_Function_baseC2Ev(ptr noundef nonnull align 8 dereferenceable(24) %this1) #5
  %_M_invoker = getelementptr inbounds %"class.std::function.0", ptr %this1, i32 0, i32 1
  store ptr null, ptr %_M_invoker, align 8
  %1 = load ptr, ptr %__f.addr, align 8
  %call = call noundef zeroext i1 @_ZNSt14_Function_base13_Base_managerIZN8facebook5velox11filesystems12_GLOBAL__N_115LocalFileSystem19fileSystemGeneratorEvEUlSt10shared_ptrIKNS2_6ConfigEESt17basic_string_viewIcSt11char_traitsIcEEE_E21_M_not_empty_functionISE_EEbRKT_(ptr noundef nonnull align 1 dereferenceable(1) %1) #5
  br i1 %call, label %if.then, label %if.end

if.then:                                          ; preds = %entry
  %_M_functor = getelementptr inbounds %"class.std::_Function_base", ptr %this1, i32 0, i32 0
  %2 = load ptr, ptr %__f.addr, align 8
  call void @_ZNSt14_Function_base13_Base_managerIZN8facebook5velox11filesystems12_GLOBAL__N_115LocalFileSystem19fileSystemGeneratorEvEUlSt10shared_ptrIKNS2_6ConfigEESt17basic_string_viewIcSt11char_traitsIcEEE_E15_M_init_functorISE_EEvRSt9_Any_dataOT_(ptr noundef nonnull align 8 dereferenceable(16) %_M_functor, ptr noundef nonnull align 1 dereferenceable(1) %2) #5
  %_M_invoker2 = getelementptr inbounds %"class.std::function.0", ptr %this1, i32 0, i32 1
  store ptr @_ZNSt17_Function_handlerIFSt10shared_ptrIN8facebook5velox11filesystems10FileSystemEES0_IKNS2_6ConfigEESt17basic_string_viewIcSt11char_traitsIcEEEZNS3_12_GLOBAL__N_115LocalFileSystem19fileSystemGeneratorEvEUlS8_SC_E_E9_M_invokeERKSt9_Any_dataOS8_OSC_, ptr %_M_invoker2, align 8
  %_M_manager = getelementptr inbounds %"class.std::_Function_base", ptr %this1, i32 0, i32 1
  store ptr @_ZNSt17_Function_handlerIFSt10shared_ptrIN8facebook5velox11filesystems10FileSystemEES0_IKNS2_6ConfigEESt17basic_string_viewIcSt11char_traitsIcEEEZNS3_12_GLOBAL__N_115LocalFileSystem19fileSystemGeneratorEvEUlS8_SC_E_E10_M_managerERSt9_Any_dataRKSI_St18_Manager_operation, ptr %_M_manager, align 8
  br label %if.end

if.end:                                           ; preds = %if.then, %entry
  ret void
}

; Function Attrs: mustprogress nounwind uwtable
define internal void @_ZNSt8functionIFbSt17basic_string_viewIcSt11char_traitsIcEEEEC2IZN8facebook5velox11filesystems12_GLOBAL__N_115LocalFileSystem13schemeMatcherEvEUlS3_E_vEEOT_(ptr noundef nonnull align 8 dereferenceable(32) %this, ptr noundef nonnull align 1 dereferenceable(1) %__f) unnamed_addr #1 align 2 {
entry:
  %this.addr = alloca ptr, align 8
  %__f.addr = alloca ptr, align 8
  store ptr %this, ptr %this.addr, align 8
  store ptr %__f, ptr %__f.addr, align 8
  %this1 = load ptr, ptr %this.addr, align 8
  %0 = getelementptr inbounds i8, ptr %this1, i64 0
  call void @llvm.memset.p0.i64(ptr align 8 %0, i8 0, i64 24, i1 false)
  call void @_ZNSt14_Function_baseC2Ev(ptr noundef nonnull align 8 dereferenceable(24) %this1) #5
  %_M_invoker = getelementptr inbounds %"class.std::function", ptr %this1, i32 0, i32 1
  store ptr null, ptr %_M_invoker, align 8
  %1 = load ptr, ptr %__f.addr, align 8
  %call = call noundef zeroext i1 @_ZNSt14_Function_base13_Base_managerIZN8facebook5velox11filesystems12_GLOBAL__N_115LocalFileSystem13schemeMatcherEvEUlSt17basic_string_viewIcSt11char_traitsIcEEE_E21_M_not_empty_functionISA_EEbRKT_(ptr noundef nonnull align 1 dereferenceable(1) %1) #5
  br i1 %call, label %if.then, label %if.end

if.then:                                          ; preds = %entry
  %_M_functor = getelementptr inbounds %"class.std::_Function_base", ptr %this1, i32 0, i32 0
  %2 = load ptr, ptr %__f.addr, align 8
  call void @_ZNSt14_Function_base13_Base_managerIZN8facebook5velox11filesystems12_GLOBAL__N_115LocalFileSystem13schemeMatcherEvEUlSt17basic_string_viewIcSt11char_traitsIcEEE_E15_M_init_functorISA_EEvRSt9_Any_dataOT_(ptr noundef nonnull align 8 dereferenceable(16) %_M_functor, ptr noundef nonnull align 1 dereferenceable(1) %2) #5
  %_M_invoker2 = getelementptr inbounds %"class.std::function", ptr %this1, i32 0, i32 1
  store ptr @_ZNSt17_Function_handlerIFbSt17basic_string_viewIcSt11char_traitsIcEEEZN8facebook5velox11filesystems12_GLOBAL__N_115LocalFileSystem13schemeMatcherEvEUlS3_E_E9_M_invokeERKSt9_Any_dataOS3_, ptr %_M_invoker2, align 8
  %_M_manager = getelementptr inbounds %"class.std::_Function_base", ptr %this1, i32 0, i32 1
  store ptr @_ZNSt17_Function_handlerIFbSt17basic_string_viewIcSt11char_traitsIcEEEZN8facebook5velox11filesystems12_GLOBAL__N_115LocalFileSystem13schemeMatcherEvEUlS3_E_E10_M_managerERSt9_Any_dataRKSC_St18_Manager_operation, ptr %_M_manager, align 8
  br label %if.end

if.end:                                           ; preds = %if.then, %entry
  ret void
}

; Function Attrs: mustprogress nounwind uwtable
define linkonce_odr void @_ZNSt8functionIFbSt17basic_string_viewIcSt11char_traitsIcEEEED2Ev(ptr noundef nonnull align 8 dereferenceable(32) %this) unnamed_addr #1 comdat align 2 {
entry:
  %this.addr = alloca ptr, align 8
  store ptr %this, ptr %this.addr, align 8
  %this1 = load ptr, ptr %this.addr, align 8
  call void @_ZNSt14_Function_baseD2Ev(ptr noundef nonnull align 8 dereferenceable(24) %this1) #5
  ret void
}

; Function Attrs: mustprogress nounwind uwtable
define linkonce_odr void @_ZNSt8functionIFSt10shared_ptrIN8facebook5velox11filesystems10FileSystemEES0_IKNS2_6ConfigEESt17basic_string_viewIcSt11char_traitsIcEEEED2Ev(ptr noundef nonnull align 8 dereferenceable(32) %this) unnamed_addr #1 comdat align 2 {
entry:
  %this.addr = alloca ptr, align 8
  store ptr %this, ptr %this.addr, align 8
  %this1 = load ptr, ptr %this.addr, align 8
  call void @_ZNSt14_Function_baseD2Ev(ptr noundef nonnull align 8 dereferenceable(24) %this1) #5
  ret void
}

; Function Attrs: mustprogress nounwind uwtable
define internal void @_ZN8facebook5velox11filesystems12_GLOBAL__N_115LocalFileSystem19fileSystemGeneratorEv(ptr noalias sret(%"class.std::function.0") align 8 %agg.result) #1 align 2 {
entry:
  %result.ptr = alloca ptr, align 8
  %ref.tmp = alloca %class.anon.7, align 1
  store ptr %agg.result, ptr %result.ptr, align 8
  call void @_ZNSt8functionIFSt10shared_ptrIN8facebook5velox11filesystems10FileSystemEES0_IKNS2_6ConfigEESt17basic_string_viewIcSt11char_traitsIcEEEEC2IZNS3_12_GLOBAL__N_115LocalFileSystem19fileSystemGeneratorEvEUlS8_SC_E_vEEOT_(ptr noundef nonnull align 8 dereferenceable(32) %agg.result, ptr noundef nonnull align 1 dereferenceable(1) %ref.tmp) #5
  ret void
}

; Function Attrs: mustprogress nounwind uwtable
define internal void @_ZN8facebook5velox11filesystems12_GLOBAL__N_115LocalFileSystem13schemeMatcherEv(ptr noalias sret(%"class.std::function") align 8 %agg.result) #1 align 2 {
entry:
  %result.ptr = alloca ptr, align 8
  %ref.tmp = alloca %class.anon, align 1
  store ptr %agg.result, ptr %result.ptr, align 8
  call void @_ZNSt8functionIFbSt17basic_string_viewIcSt11char_traitsIcEEEEC2IZN8facebook5velox11filesystems12_GLOBAL__N_115LocalFileSystem13schemeMatcherEvEUlS3_E_vEEOT_(ptr noundef nonnull align 8 dereferenceable(32) %agg.result, ptr noundef nonnull align 1 dereferenceable(1) %ref.tmp) #5
  ret void
}

; Function Attrs: mustprogress uwtable
define void @_ZN8facebook5velox11filesystems23registerLocalFileSystemEv() #0 personality ptr @__gxx_personality_v0 {
entry:
  %agg.tmp = alloca %"class.std::function", align 8
  %agg.tmp1 = alloca %"class.std::function.0", align 8
  %exn.slot = alloca ptr, align 8
  %ehselector.slot = alloca i32, align 4
  call void @_ZN8facebook5velox11filesystems12_GLOBAL__N_115LocalFileSystem13schemeMatcherEv(ptr sret(%"class.std::function") align 8 %agg.tmp)
  invoke void @_ZN8facebook5velox11filesystems12_GLOBAL__N_115LocalFileSystem19fileSystemGeneratorEv(ptr sret(%"class.std::function.0") align 8 %agg.tmp1)
          to label %invoke.cont unwind label %lpad

invoke.cont:                                      ; preds = %entry
  invoke void @_ZN8facebook5velox11filesystems18registerFileSystemESt8functionIFbSt17basic_string_viewIcSt11char_traitsIcEEEES2_IFSt10shared_ptrINS1_10FileSystemEES9_IKNS0_6ConfigEES6_EE(ptr noundef %agg.tmp, ptr noundef %agg.tmp1)
          to label %invoke.cont3 unwind label %lpad2

invoke.cont3:                                     ; preds = %invoke.cont
  call void @_ZNSt8functionIFSt10shared_ptrIN8facebook5velox11filesystems10FileSystemEES0_IKNS2_6ConfigEESt17basic_string_viewIcSt11char_traitsIcEEEED2Ev(ptr noundef nonnull align 8 dereferenceable(32) %agg.tmp1) #5
  call void @_ZNSt8functionIFbSt17basic_string_viewIcSt11char_traitsIcEEEED2Ev(ptr noundef nonnull align 8 dereferenceable(32) %agg.tmp) #5
  ret void

lpad:                                             ; preds = %entry
  %0 = landingpad { ptr, i32 }
          cleanup
  %1 = extractvalue { ptr, i32 } %0, 0
  store ptr %1, ptr %exn.slot, align 8
  %2 = extractvalue { ptr, i32 } %0, 1
  store i32 %2, ptr %ehselector.slot, align 4
  br label %ehcleanup

lpad2:                                            ; preds = %invoke.cont
  %3 = landingpad { ptr, i32 }
          cleanup
  %4 = extractvalue { ptr, i32 } %3, 0
  store ptr %4, ptr %exn.slot, align 8
  %5 = extractvalue { ptr, i32 } %3, 1
  store i32 %5, ptr %ehselector.slot, align 4
  call void @_ZNSt8functionIFSt10shared_ptrIN8facebook5velox11filesystems10FileSystemEES0_IKNS2_6ConfigEESt17basic_string_viewIcSt11char_traitsIcEEEED2Ev(ptr noundef nonnull align 8 dereferenceable(32) %agg.tmp1) #5
  br label %ehcleanup

ehcleanup:                                        ; preds = %lpad2, %lpad
  call void @_ZNSt8functionIFbSt17basic_string_viewIcSt11char_traitsIcEEEED2Ev(ptr noundef nonnull align 8 dereferenceable(32) %agg.tmp) #5
  br label %eh.resume

eh.resume:                                        ; preds = %ehcleanup
  %exn = load ptr, ptr %exn.slot, align 8
  %sel = load i32, ptr %ehselector.slot, align 4
  %lpad.val = insertvalue { ptr, i32 } poison, ptr %exn, 0
  %lpad.val4 = insertvalue { ptr, i32 } %lpad.val, i32 %sel, 1
  resume { ptr, i32 } %lpad.val4
}