; Function Attrs: mustprogress uwtable
define void @_ZN8facebook5velox11filesystems23registerLocalFileSystemEv() local_unnamed_addr #0 personality ptr @__gxx_personality_v0 {
entry:
  %agg.tmp = alloca %"class.std::function", align 8
  %agg.tmp1 = alloca %"class.std::function.0", align 8
  %_M_manager.i.i.i = getelementptr inbounds i8, ptr %agg.tmp, i64 16
  %_M_invoker.i.i = getelementptr inbounds i8, ptr %agg.tmp, i64 24
  call void @llvm.memset.p0.i64(ptr noundef nonnull align 8 dereferenceable(16) %agg.tmp, i8 0, i64 16, i1 false), !alias.scope !8
  store ptr @_ZNSt17_Function_handlerIFbSt17basic_string_viewIcSt11char_traitsIcEEEZN8facebook5velox11filesystems12_GLOBAL__N_115LocalFileSystem13schemeMatcherEvEUlS3_E_E9_M_invokeERKSt9_Any_dataOS3_, ptr %_M_invoker.i.i, align 8, !alias.scope !8
  store ptr @_ZNSt17_Function_handlerIFbSt17basic_string_viewIcSt11char_traitsIcEEEZN8facebook5velox11filesystems12_GLOBAL__N_115LocalFileSystem13schemeMatcherEvEUlS3_E_E10_M_managerERSt9_Any_dataRKSC_St18_Manager_operation, ptr %_M_manager.i.i.i, align 8, !alias.scope !8
  %_M_manager.i.i.i1 = getelementptr inbounds i8, ptr %agg.tmp1, i64 16
  %_M_invoker.i.i2 = getelementptr inbounds i8, ptr %agg.tmp1, i64 24
  call void @llvm.memset.p0.i64(ptr noundef nonnull align 8 dereferenceable(16) %agg.tmp1, i8 0, i64 16, i1 false), !alias.scope !11
  store ptr @_ZNSt17_Function_handlerIFSt10shared_ptrIN8facebook5velox11filesystems10FileSystemEES0_IKNS2_6ConfigEESt17basic_string_viewIcSt11char_traitsIcEEEZNS3_12_GLOBAL__N_115LocalFileSystem19fileSystemGeneratorEvEUlS8_SC_E_E9_M_invokeERKSt9_Any_dataOS8_OSC_, ptr %_M_invoker.i.i2, align 8, !alias.scope !11
  store ptr @_ZNSt17_Function_handlerIFSt10shared_ptrIN8facebook5velox11filesystems10FileSystemEES0_IKNS2_6ConfigEESt17basic_string_viewIcSt11char_traitsIcEEEZNS3_12_GLOBAL__N_115LocalFileSystem19fileSystemGeneratorEvEUlS8_SC_E_E10_M_managerERSt9_Any_dataRKSI_St18_Manager_operation, ptr %_M_manager.i.i.i1, align 8, !alias.scope !11
  invoke void @_ZN8facebook5velox11filesystems18registerFileSystemESt8functionIFbSt17basic_string_viewIcSt11char_traitsIcEEEES2_IFSt10shared_ptrINS1_10FileSystemEES9_IKNS0_6ConfigEES6_EE(ptr noundef nonnull %agg.tmp, ptr noundef nonnull %agg.tmp1)
          to label %invoke.cont3 unwind label %lpad2

invoke.cont3:                                     ; preds = %entry
  %0 = load ptr, ptr %_M_manager.i.i.i1, align 8
  %tobool.not.i.i = icmp eq ptr %0, null
  br i1 %tobool.not.i.i, label %_ZNSt8functionIFSt10shared_ptrIN8facebook5velox11filesystems10FileSystemEES0_IKNS2_6ConfigEESt17basic_string_viewIcSt11char_traitsIcEEEED2Ev.exit, label %if.then.i.i

if.then.i.i:                                      ; preds = %invoke.cont3
  %call.i.i = invoke noundef zeroext i1 %0(ptr noundef nonnull align 8 dereferenceable(16) %agg.tmp1, ptr noundef nonnull align 8 dereferenceable(16) %agg.tmp1, i32 noundef 3)
          to label %_ZNSt8functionIFSt10shared_ptrIN8facebook5velox11filesystems10FileSystemEES0_IKNS2_6ConfigEESt17basic_string_viewIcSt11char_traitsIcEEEED2Ev.exit unwind label %terminate.lpad.i.i

terminate.lpad.i.i:                               ; preds = %if.then.i.i
  %1 = landingpad { ptr, i32 }
          catch ptr null
  %2 = extractvalue { ptr, i32 } %1, 0
  call void @__clang_call_terminate(ptr %2) #26
  unreachable

_ZNSt8functionIFSt10shared_ptrIN8facebook5velox11filesystems10FileSystemEES0_IKNS2_6ConfigEESt17basic_string_viewIcSt11char_traitsIcEEEED2Ev.exit: ; preds = %invoke.cont3, %if.then.i.i
  %3 = load ptr, ptr %_M_manager.i.i.i, align 8
  %tobool.not.i.i4 = icmp eq ptr %3, null
  br i1 %tobool.not.i.i4, label %_ZNSt8functionIFbSt17basic_string_viewIcSt11char_traitsIcEEEED2Ev.exit, label %if.then.i.i5

if.then.i.i5:                                     ; preds = %_ZNSt8functionIFSt10shared_ptrIN8facebook5velox11filesystems10FileSystemEES0_IKNS2_6ConfigEESt17basic_string_viewIcSt11char_traitsIcEEEED2Ev.exit
  %call.i.i6 = invoke noundef zeroext i1 %3(ptr noundef nonnull align 8 dereferenceable(16) %agg.tmp, ptr noundef nonnull align 8 dereferenceable(16) %agg.tmp, i32 noundef 3)
          to label %_ZNSt8functionIFbSt17basic_string_viewIcSt11char_traitsIcEEEED2Ev.exit unwind label %terminate.lpad.i.i7

terminate.lpad.i.i7:                              ; preds = %if.then.i.i5
  %4 = landingpad { ptr, i32 }
          catch ptr null
  %5 = extractvalue { ptr, i32 } %4, 0
  call void @__clang_call_terminate(ptr %5) #26
  unreachable

_ZNSt8functionIFbSt17basic_string_viewIcSt11char_traitsIcEEEED2Ev.exit: ; preds = %_ZNSt8functionIFSt10shared_ptrIN8facebook5velox11filesystems10FileSystemEES0_IKNS2_6ConfigEESt17basic_string_viewIcSt11char_traitsIcEEEED2Ev.exit, %if.then.i.i5
  ret void

lpad2:                                            ; preds = %entry
  %6 = landingpad { ptr, i32 }
          cleanup
  %7 = load ptr, ptr %_M_manager.i.i.i1, align 8
  %tobool.not.i.i9 = icmp eq ptr %7, null
  br i1 %tobool.not.i.i9, label %_ZNSt8functionIFSt10shared_ptrIN8facebook5velox11filesystems10FileSystemEES0_IKNS2_6ConfigEESt17basic_string_viewIcSt11char_traitsIcEEEED2Ev.exit13, label %if.then.i.i10

if.then.i.i10:                                    ; preds = %lpad2
  %call.i.i11 = invoke noundef zeroext i1 %7(ptr noundef nonnull align 8 dereferenceable(16) %agg.tmp1, ptr noundef nonnull align 8 dereferenceable(16) %agg.tmp1, i32 noundef 3)
          to label %_ZNSt8functionIFSt10shared_ptrIN8facebook5velox11filesystems10FileSystemEES0_IKNS2_6ConfigEESt17basic_string_viewIcSt11char_traitsIcEEEED2Ev.exit13 unwind label %terminate.lpad.i.i12

terminate.lpad.i.i12:                             ; preds = %if.then.i.i10
  %8 = landingpad { ptr, i32 }
          catch ptr null
  %9 = extractvalue { ptr, i32 } %8, 0
  call void @__clang_call_terminate(ptr %9) #26
  unreachable

_ZNSt8functionIFSt10shared_ptrIN8facebook5velox11filesystems10FileSystemEES0_IKNS2_6ConfigEESt17basic_string_viewIcSt11char_traitsIcEEEED2Ev.exit13: ; preds = %lpad2, %if.then.i.i10
  %10 = load ptr, ptr %_M_manager.i.i.i, align 8
  %tobool.not.i.i15 = icmp eq ptr %10, null
  br i1 %tobool.not.i.i15, label %_ZNSt8functionIFbSt17basic_string_viewIcSt11char_traitsIcEEEED2Ev.exit19, label %if.then.i.i16

if.then.i.i16:                                    ; preds = %_ZNSt8functionIFSt10shared_ptrIN8facebook5velox11filesystems10FileSystemEES0_IKNS2_6ConfigEESt17basic_string_viewIcSt11char_traitsIcEEEED2Ev.exit13
  %call.i.i17 = invoke noundef zeroext i1 %10(ptr noundef nonnull align 8 dereferenceable(16) %agg.tmp, ptr noundef nonnull align 8 dereferenceable(16) %agg.tmp, i32 noundef 3)
          to label %_ZNSt8functionIFbSt17basic_string_viewIcSt11char_traitsIcEEEED2Ev.exit19 unwind label %terminate.lpad.i.i18

terminate.lpad.i.i18:                             ; preds = %if.then.i.i16
  %11 = landingpad { ptr, i32 }
          catch ptr null
  %12 = extractvalue { ptr, i32 } %11, 0
  call void @__clang_call_terminate(ptr %12) #26
  unreachable

_ZNSt8functionIFbSt17basic_string_viewIcSt11char_traitsIcEEEED2Ev.exit19: ; preds = %_ZNSt8functionIFSt10shared_ptrIN8facebook5velox11filesystems10FileSystemEES0_IKNS2_6ConfigEESt17basic_string_viewIcSt11char_traitsIcEEEED2Ev.exit13, %if.then.i.i16
  resume { ptr, i32 } %6
}